target datalayout = "e-m:e-p270:32:32-p271:32:32-p272:64:64-i64:64-i128:128-f80:128-n8:16:32:64-S128"
target triple = "x86_64-pc-linux-gnu"

%struct.bitstream = type { i64, i64, ptr, ptr, ptr }

; Function Attrs: nounwind uwtable
define internal void @stream_write_word(ptr noundef %0, i64 noundef %1) #0 {
  %3 = alloca ptr, align 8
  %4 = alloca i64, align 8
  store ptr %0, ptr %3, align 8
  store i64 %1, ptr %4, align 8
  %5 = load i64, ptr %4, align 8
  %6 = load ptr, ptr %3, align 8
  %7 = getelementptr inbounds %struct.bitstream, ptr %6, i32 0, i32 2
  %8 = load ptr, ptr %7, align 8
  %9 = getelementptr inbounds i64, ptr %8, i32 1
  store ptr %9, ptr %7, align 8
  store i64 %5, ptr %8, align 8
  ret void
}

; Function Attrs: nounwind uwtable
define i64 @stream_write_bits(ptr noundef %0, i64 noundef %1, i64 noundef %2) #0 {
  %4 = alloca ptr, align 8
  %5 = alloca i64, align 8
  %6 = alloca i64, align 8
  store ptr %0, ptr %4, align 8
  store i64 %1, ptr %5, align 8
  store i64 %2, ptr %6, align 8
  %7 = load i64, ptr %5, align 8
  %8 = load ptr, ptr %4, align 8
  %9 = getelementptr inbounds %struct.bitstream, ptr %8, i32 0, i32 0
  %10 = load i64, ptr %9, align 8
  %11 = shl i64 %7, %10
  %12 = load ptr, ptr %4, align 8
  %13 = getelementptr inbounds %struct.bitstream, ptr %12, i32 0, i32 1
  %14 = load i64, ptr %13, align 8
  %15 = add i64 %14, %11
  store i64 %15, ptr %13, align 8
  %16 = load i64, ptr %6, align 8
  %17 = load ptr, ptr %4, align 8
  %18 = getelementptr inbounds %struct.bitstream, ptr %17, i32 0, i32 0
  %19 = load i64, ptr %18, align 8
  %20 = add i64 %19, %16
  store i64 %20, ptr %18, align 8
  %21 = load ptr, ptr %4, align 8
  %22 = getelementptr inbounds %struct.bitstream, ptr %21, i32 0, i32 0
  %23 = load i64, ptr %22, align 8
  %24 = icmp uge i64 %23, 64
  br i1 %24, label %25, label %49

25:                                               ; preds = %3
  %26 = load i64, ptr %5, align 8
  %27 = lshr i64 %26, 1
  store i64 %27, ptr %5, align 8
  %28 = load i64, ptr %6, align 8
  %29 = add i64 %28, -1
  store i64 %29, ptr %6, align 8
  br label %30

30:                                               ; preds = %25
  %31 = load ptr, ptr %4, align 8
  %32 = getelementptr inbounds %struct.bitstream, ptr %31, i32 0, i32 0
  %33 = load i64, ptr %32, align 8
  %34 = sub i64 %33, 64
  store i64 %34, ptr %32, align 8
  %35 = load ptr, ptr %4, align 8
  %36 = load ptr, ptr %4, align 8
  %37 = getelementptr inbounds %struct.bitstream, ptr %36, i32 0, i32 1
  %38 = load i64, ptr %37, align 8
  call void @stream_write_word(ptr noundef %35, i64 noundef %38)
  %39 = load i64, ptr %5, align 8
  %40 = load i64, ptr %6, align 8
  %41 = load ptr, ptr %4, align 8
  %42 = getelementptr inbounds %struct.bitstream, ptr %41, i32 0, i32 0
  %43 = load i64, ptr %42, align 8
  %44 = sub i64 %40, %43
  %45 = lshr i64 %39, %44
  %46 = load ptr, ptr %4, align 8
  %47 = getelementptr inbounds %struct.bitstream, ptr %46, i32 0, i32 1
  store i64 %45, ptr %47, align 8
  br label %48

48:                                               ; preds = %30
  br label %49

49:                                               ; preds = %48, %3
  %50 = load ptr, ptr %4, align 8
  %51 = getelementptr inbounds %struct.bitstream, ptr %50, i32 0, i32 0
  %52 = load i64, ptr %51, align 8
  %53 = shl i64 1, %52
  %54 = sub i64 %53, 1
  %55 = load ptr, ptr %4, align 8
  %56 = getelementptr inbounds %struct.bitstream, ptr %55, i32 0, i32 1
  %57 = load i64, ptr %56, align 8
  %58 = and i64 %57, %54
  store i64 %58, ptr %56, align 8
  %59 = load i64, ptr %5, align 8
  %60 = load i64, ptr %6, align 8
  %61 = lshr i64 %59, %60
  ret i64 %61
}