; Function Attrs: mustprogress nofree norecurse nosync nounwind willreturn memory(write, argmem: readwrite, inaccessiblemem: none) uwtable
define i64 @stream_write_bits(ptr noundef captures(none) %0, i64 noundef %1, i64 noundef %2) local_unnamed_addr #3 {
  %4 = load i64, ptr %0, align 8
  %5 = shl i64 %1, %4
  %6 = getelementptr inbounds nuw i8, ptr %0, i64 8
  %7 = load i64, ptr %6, align 8
  %8 = add i64 %7, %5
  %9 = add i64 %4, %2
  store i64 %9, ptr %0, align 8
  %10 = icmp ugt i64 %9, 63
  br i1 %10, label %11, label %21

11:                                               ; preds = %3
  %12 = lshr i64 %1, 1
  %13 = add i64 %2, -1
  %14 = add i64 %9, -64
  store i64 %14, ptr %0, align 8
  %15 = getelementptr inbounds nuw i8, ptr %0, i64 16
  %16 = load ptr, ptr %15, align 8
  %17 = getelementptr inbounds nuw i8, ptr %16, i64 8
  store ptr %17, ptr %15, align 8
  store i64 %8, ptr %16, align 8
  %18 = load i64, ptr %0, align 8
  %19 = sub i64 %13, %18
  %20 = lshr i64 %12, %19
  br label %21

21:                                               ; preds = %11, %3
  %22 = phi i64 [ %20, %11 ], [ %8, %3 ]
  %23 = phi i64 [ %18, %11 ], [ %9, %3 ]
  %.018 = phi i64 [ %12, %11 ], [ %1, %3 ]
  %.0 = phi i64 [ %13, %11 ], [ %2, %3 ]
  %notmask = shl nsw i64 -1, %23
  %24 = xor i64 %notmask, -1
  %25 = and i64 %22, %24
  store i64 %25, ptr %6, align 8
  %26 = lshr i64 %.018, %.0
  ret i64 %26
}